target datalayout = "e-m:e-p270:32:32-p271:32:32-p272:64:64-i64:64-i128:128-f80:128-n8:16:32:64-S128"
target triple = "x86_64-pc-linux-gnu"

; Function Attrs: mustprogress uwtable
define internal noundef i32 @_ZN5boost10filesystem6detail12_GLOBAL__N_130copy_file_data_read_write_implEiiPcm(i32 noundef %0, i32 noundef %1, ptr noundef %2, i64 noundef %3) #5 {
  %5 = alloca i32, align 4
  %6 = alloca i32, align 4
  %7 = alloca i32, align 4
  %8 = alloca ptr, align 8
  %9 = alloca i64, align 8
  %10 = alloca i64, align 8
  %11 = alloca i32, align 4
  %12 = alloca i32, align 4
  %13 = alloca i64, align 8
  %14 = alloca i64, align 8
  %15 = alloca i32, align 4
  store i32 %0, ptr %6, align 4, !tbaa !7
  store i32 %1, ptr %7, align 4, !tbaa !7
  store ptr %2, ptr %8, align 8, !tbaa !3
  store i64 %3, ptr %9, align 8, !tbaa !23
  %16 = load i32, ptr %6, align 4, !tbaa !7
  %17 = call i32 @posix_fadvise64(i32 noundef %16, i64 noundef 0, i64 noundef 0, i32 noundef 2) #14
  br label %18

18:                                               ; preds = %4, %80, %82
  call void @llvm.lifetime.start.p0(i64 8, ptr %10) #14
  %19 = load i32, ptr %6, align 4, !tbaa !7
  %20 = load ptr, ptr %8, align 8, !tbaa !3
  %21 = load i64, ptr %9, align 8, !tbaa !23
  %22 = call i64 @read(i32 noundef %19, ptr noundef %20, i64 noundef %21)
  store i64 %22, ptr %10, align 8, !tbaa !23
  %23 = load i64, ptr %10, align 8, !tbaa !23
  %24 = icmp eq i64 %23, 0
  br i1 %24, label %25, label %26

25:                                               ; preds = %18
  store i32 3, ptr %11, align 4
  br label %80

26:                                               ; preds = %18
  %27 = load i64, ptr %10, align 8, !tbaa !23
  %28 = icmp slt i64 %27, 0
  %29 = zext i1 %28 to i64
  %30 = call i64 @llvm.expect.i64(i64 %29, i64 0)
  %31 = icmp ne i64 %30, 0
  br i1 %31, label %32, label %41

32:                                               ; preds = %26
  call void @llvm.lifetime.start.p0(i64 4, ptr %12) #14
  %33 = call ptr @__errno_location() #22
  %34 = load i32, ptr %33, align 4, !tbaa !7
  store i32 %34, ptr %12, align 4, !tbaa !7
  %35 = load i32, ptr %12, align 4, !tbaa !7
  %36 = icmp eq i32 %35, 4
  br i1 %36, label %37, label %38

37:                                               ; preds = %32
  store i32 2, ptr %11, align 4
  br label %40, !llvm.loop !102

38:                                               ; preds = %32
  %39 = load i32, ptr %12, align 4, !tbaa !7
  store i32 %39, ptr %5, align 4
  store i32 1, ptr %11, align 4
  br label %40

40:                                               ; preds = %38, %37
  call void @llvm.lifetime.end.p0(i64 4, ptr %12) #14
  br label %80

41:                                               ; preds = %26
  call void @llvm.lifetime.start.p0(i64 8, ptr %13) #14
  store i64 0, ptr %13, align 8, !tbaa !23
  br label %42

42:                                               ; preds = %76, %74, %41
  %43 = load i64, ptr %13, align 8, !tbaa !23
  %44 = load i64, ptr %10, align 8, !tbaa !23
  %45 = icmp slt i64 %43, %44
  br i1 %45, label %47, label %46

46:                                               ; preds = %42
  store i32 4, ptr %11, align 4
  br label %77

47:                                               ; preds = %42
  call void @llvm.lifetime.start.p0(i64 8, ptr %14) #14
  %48 = load i32, ptr %7, align 4, !tbaa !7
  %49 = load ptr, ptr %8, align 8, !tbaa !3
  %50 = load i64, ptr %13, align 8, !tbaa !23
  %51 = getelementptr inbounds i8, ptr %49, i64 %50
  %52 = load i64, ptr %10, align 8, !tbaa !23
  %53 = load i64, ptr %13, align 8, !tbaa !23
  %54 = sub nsw i64 %52, %53
  %55 = call i64 @write(i32 noundef %48, ptr noundef %51, i64 noundef %54)
  store i64 %55, ptr %14, align 8, !tbaa !23
  %56 = load i64, ptr %14, align 8, !tbaa !23
  %57 = icmp slt i64 %56, 0
  %58 = zext i1 %57 to i64
  %59 = call i64 @llvm.expect.i64(i64 %58, i64 0)
  %60 = icmp ne i64 %59, 0
  br i1 %60, label %61, label %70

61:                                               ; preds = %47
  call void @llvm.lifetime.start.p0(i64 4, ptr %15) #14
  %62 = call ptr @__errno_location() #22
  %63 = load i32, ptr %62, align 4, !tbaa !7
  store i32 %63, ptr %15, align 4, !tbaa !7
  %64 = load i32, ptr %15, align 4, !tbaa !7
  %65 = icmp eq i32 %64, 4
  br i1 %65, label %66, label %67

66:                                               ; preds = %61
  store i32 5, ptr %11, align 4
  br label %69, !llvm.loop !103

67:                                               ; preds = %61
  %68 = load i32, ptr %15, align 4, !tbaa !7
  store i32 %68, ptr %5, align 4
  store i32 1, ptr %11, align 4
  br label %69

69:                                               ; preds = %67, %66
  call void @llvm.lifetime.end.p0(i64 4, ptr %15) #14
  br label %74

70:                                               ; preds = %47
  %71 = load i64, ptr %14, align 8, !tbaa !23
  %72 = load i64, ptr %13, align 8, !tbaa !23
  %73 = add nsw i64 %72, %71
  store i64 %73, ptr %13, align 8, !tbaa !23
  store i32 0, ptr %11, align 4
  br label %74

74:                                               ; preds = %70, %69
  call void @llvm.lifetime.end.p0(i64 8, ptr %14) #14
  %75 = load i32, ptr %11, align 4
  switch i32 %75, label %77 [
    i32 0, label %76
    i32 5, label %42
  ]

76:                                               ; preds = %74
  br label %42, !llvm.loop !103

77:                                               ; preds = %74, %46
  call void @llvm.lifetime.end.p0(i64 8, ptr %13) #14
  %78 = load i32, ptr %11, align 4
  switch i32 %78, label %80 [
    i32 4, label %79
  ]

79:                                               ; preds = %77
  store i32 0, ptr %11, align 4
  br label %80

80:                                               ; preds = %79, %77, %40, %25
  call void @llvm.lifetime.end.p0(i64 8, ptr %10) #14
  %81 = load i32, ptr %11, align 4
  switch i32 %81, label %86 [
    i32 0, label %82
    i32 3, label %83
    i32 2, label %18
    i32 1, label %84
  ]

82:                                               ; preds = %80
  br label %18, !llvm.loop !102

83:                                               ; preds = %80
  store i32 0, ptr %5, align 4
  br label %84

84:                                               ; preds = %83, %80
  %85 = load i32, ptr %5, align 4
  ret i32 %85

86:                                               ; preds = %80
  unreachable
}