; Function Attrs: mustprogress uwtable
define internal fastcc noundef range(i32 5, 4) i32 @_ZN5boost10filesystem6detail12_GLOBAL__N_130copy_file_data_read_write_implEiiPcm(i32 noundef %0, i32 noundef %1, ptr nocapture noundef %2, i64 noundef range(i64 0, 4294967296) %3) unnamed_addr #5 {
  %5 = tail call i32 @posix_fadvise64(i32 noundef %0, i64 noundef 0, i64 noundef 0, i32 noundef 2) #27
  %6 = tail call i64 @read(i32 noundef %0, ptr noundef %2, i64 noundef %3)
  %7 = icmp eq i64 %6, 0
  br i1 %7, label %.thread45, label %.lr.ph53

.lr.ph53:                                         ; preds = %4, %select.unfold44
  %8 = phi i64 [ %25, %select.unfold44 ], [ %6, %4 ]
  %9 = icmp slt i64 %8, 0
  br i1 %9, label %10, label %.lr.ph, !prof !41

10:                                               ; preds = %.lr.ph53
  %11 = tail call ptr @__errno_location() #30
  %12 = load i32, ptr %11, align 4, !tbaa !19
  %13 = icmp eq i32 %12, 4
  br i1 %13, label %select.unfold44, label %.thread45

.lr.ph:                                           ; preds = %.lr.ph53, %select.unfold
  %.02852 = phi i64 [ %.129, %select.unfold ], [ 0, %.lr.ph53 ]
  %14 = getelementptr inbounds i8, ptr %2, i64 %.02852
  %15 = sub nsw i64 %8, %.02852
  %16 = tail call i64 @write(i32 noundef %1, ptr noundef %14, i64 noundef %15)
  %17 = icmp slt i64 %16, 0
  br i1 %17, label %18, label %22, !prof !41

18:                                               ; preds = %.lr.ph
  %19 = tail call ptr @__errno_location() #30
  %20 = load i32, ptr %19, align 4, !tbaa !19
  %21 = icmp eq i32 %20, 4
  br i1 %21, label %select.unfold, label %.thread45

22:                                               ; preds = %.lr.ph
  %23 = add nuw nsw i64 %16, %.02852
  br label %select.unfold

select.unfold:                                    ; preds = %18, %22
  %.129 = phi i64 [ %23, %22 ], [ %.02852, %18 ]
  %24 = icmp slt i64 %.129, %8
  br i1 %24, label %.lr.ph, label %select.unfold44

select.unfold44:                                  ; preds = %select.unfold, %10
  %25 = tail call i64 @read(i32 noundef %0, ptr noundef %2, i64 noundef %3)
  %26 = icmp eq i64 %25, 0
  br i1 %26, label %.thread45, label %.lr.ph53

.thread45:                                        ; preds = %select.unfold44, %10, %18, %4
  %.7 = phi i32 [ 0, %4 ], [ %20, %18 ], [ 0, %select.unfold44 ], [ %12, %10 ]
  ret i32 %.7
}